; Function Attrs: mustprogress nounwind uwtable
define hidden noundef ptr @_ZN28TemplateInterpreterGenerator19generate_error_exitEPKc(ptr nocapture noundef nonnull readonly align 8 dereferenceable(24) %0, ptr noundef %1) local_unnamed_addr #0 align 2 {
  %3 = load ptr, ptr %0, align 8
  %4 = load i8, ptr @PrintInterpreter, align 1
  %5 = trunc i8 %4 to i1
  br i1 %5, label %6, label %_ZN12Disassembler4hookI25InterpreterMacroAssemblerEEPT_PKciS3_.exit

6:                                                ; preds = %2
  tail call void @_ZN12Disassembler5_hookEPKciP14MacroAssembler(ptr noundef nonnull @.str.52, i32 noundef 271, ptr noundef %3) #7
  %.pre = load ptr, ptr %0, align 8
  %.pre4 = load i8, ptr @PrintInterpreter, align 1
  br label %_ZN12Disassembler4hookI25InterpreterMacroAssemblerEEPT_PKciS3_.exit

_ZN12Disassembler4hookI25InterpreterMacroAssemblerEEPT_PKciS3_.exit: ; preds = %2, %6
  %7 = phi i8 [ %4, %2 ], [ %.pre4, %6 ]
  %8 = phi ptr [ %3, %2 ], [ %.pre, %6 ]
  %9 = getelementptr inbounds i8, ptr %3, i64 8
  %10 = load ptr, ptr %9, align 8
  %11 = getelementptr inbounds i8, ptr %10, i64 16
  %12 = load ptr, ptr %11, align 8
  %13 = trunc i8 %7 to i1
  br i1 %13, label %14, label %_ZN12Disassembler4hookI25InterpreterMacroAssemblerEEPT_PKciS3_.exit3

14:                                               ; preds = %_ZN12Disassembler4hookI25InterpreterMacroAssemblerEEPT_PKciS3_.exit
  tail call void @_ZN12Disassembler5_hookEPKciP14MacroAssembler(ptr noundef nonnull @.str.52, i32 noundef 272, ptr noundef %8) #7
  br label %_ZN12Disassembler4hookI25InterpreterMacroAssemblerEEPT_PKciS3_.exit3

_ZN12Disassembler4hookI25InterpreterMacroAssemblerEEPT_PKciS3_.exit3: ; preds = %_ZN12Disassembler4hookI25InterpreterMacroAssemblerEEPT_PKciS3_.exit, %14
  tail call void @_ZN14MacroAssembler4stopEPKc(ptr noundef nonnull align 8 dereferenceable(40) %8, ptr noundef %1) #7
  ret ptr %12
}